target datalayout = "e-m:e-p270:32:32-p271:32:32-p272:64:64-i64:64-i128:128-f80:128-n8:16:32:64-S128"
target triple = "x86_64-pc-linux-gnu"

%struct.cip_io_data_input = type { ptr, i32 }
%struct.cip_conn_info = type { %struct.cip_connection_triad, i8, i32, %struct.cip_safety_epath_info, i32, ptr, %struct.cip_simple_request_info, i32, i32, i32, %struct.cip_connID_info, %struct.cip_connID_info, i32, i32, i32 }
%struct.cip_connection_triad = type { i16, i16, i32 }
%struct.cip_safety_epath_info = type { i32, i32, i32, i32, i16, i16, i32, %struct.cip_connection_triad, float }
%struct.cip_simple_request_info = type { i32, i32, i32, i32, i32, i32, i32, i32, i32 }
%struct.cip_connID_info = type { i32, %struct._address, i16, i32, i32, i32, i32, i32 }
%struct._address = type { i32, i32, ptr, ptr }

; Function Attrs: nounwind uwtable
define internal i32 @dissect_cipmotion3(ptr noundef %0, ptr noundef %1, ptr noundef %2, ptr noundef %3) #0 {
  %5 = alloca ptr, align 8
  %6 = alloca ptr, align 8
  %7 = alloca ptr, align 8
  %8 = alloca ptr, align 8
  %9 = alloca %struct.cip_conn_info, align 8
  %10 = alloca %struct.cip_io_data_input, align 8
  store ptr %0, ptr %5, align 8
  store ptr %1, ptr %6, align 8
  store ptr %2, ptr %7, align 8
  store ptr %3, ptr %8, align 8
  call void @llvm.memset.p0.i64(ptr align 8 %9, i8 0, i64 240, i1 false)
  %11 = getelementptr inbounds %struct.cip_conn_info, ptr %9, i32 0, i32 6
  %12 = getelementptr inbounds %struct.cip_simple_request_info, ptr %11, i32 0, i32 7
  store i32 3, ptr %12, align 4
  %13 = getelementptr inbounds %struct.cip_io_data_input, ptr %10, i32 0, i32 0
  store ptr %9, ptr %13, align 8
  %14 = load ptr, ptr %5, align 8
  %15 = load ptr, ptr %6, align 8
  %16 = load ptr, ptr %7, align 8
  %17 = call i32 @dissect_cipmotion(ptr noundef %14, ptr noundef %15, ptr noundef %16, ptr noundef %10)
  ret i32 %17
}