; Function Attrs: nounwind uwtable
define internal i32 @dissect_cipmotion3(ptr noundef %0, ptr noundef %1, ptr noundef %2, ptr readnone captures(none) %3) #0 {
  %5 = alloca %struct.cip_conn_info, align 8
  %6 = alloca %struct.cip_io_data_input, align 8
  call void @llvm.memset.p0.i64(ptr noundef nonnull align 8 dereferenceable(240) %5, i8 0, i64 240, i1 false)
  %7 = getelementptr inbounds nuw i8, ptr %5, i64 92
  store i32 3, ptr %7, align 4
  store ptr %5, ptr %6, align 8
  %8 = call i32 @dissect_cipmotion(ptr noundef %0, ptr noundef %1, ptr noundef %2, ptr noundef nonnull %6)
  ret i32 %8
}